; Function Attrs: nounwind uwtable
define internal ptr @method_vectorcall_FASTCALL_KEYWORDS(ptr noundef %0, ptr noundef %1, i64 noundef %2, ptr noundef %3) #0 {
  %5 = tail call align 8 ptr @llvm.threadlocal.address.p0(ptr align 8 @_Py_tss_tstate)
  %6 = load ptr, ptr %5, align 8, !tbaa !63
  %7 = and i64 %2, 9223372036854775807
  %8 = tail call fastcc i32 @method_check_args(ptr noundef %0, ptr noundef %1, i64 noundef %7, ptr noundef null)
  %.not = icmp eq i32 %8, 0
  br i1 %.not, label %9, label %method_enter_call.exit.thread

9:                                                ; preds = %4
  %10 = getelementptr inbounds nuw i8, ptr %6, i64 52
  %11 = load i32, ptr %10, align 4, !tbaa !144
  %12 = add i32 %11, -1
  store i32 %12, ptr %10, align 4, !tbaa !144
  %.not.i.i = icmp sgt i32 %11, -1
  br i1 %.not.i.i, label %method_enter_call.exit, label %_Py_EnterRecursiveCallTstate.exit.i

_Py_EnterRecursiveCallTstate.exit.i:              ; preds = %9
  %13 = tail call i32 @_Py_CheckRecursiveCall(ptr noundef nonnull %6, ptr noundef nonnull @.str.42) #9
  %.not4.i = icmp eq i32 %13, 0
  br i1 %.not4.i, label %method_enter_call.exit, label %method_enter_call.exit.thread

method_enter_call.exit:                           ; preds = %9, %_Py_EnterRecursiveCallTstate.exit.i
  %14 = getelementptr inbounds nuw i8, ptr %0, i64 40
  %15 = load ptr, ptr %14, align 8, !tbaa !31
  %16 = getelementptr inbounds nuw i8, ptr %15, i64 8
  %17 = load ptr, ptr %16, align 8, !tbaa !145
  %18 = icmp eq ptr %17, null
  br i1 %18, label %method_enter_call.exit.thread, label %19

19:                                               ; preds = %method_enter_call.exit
  %20 = load ptr, ptr %1, align 8, !tbaa !30
  %21 = getelementptr i8, ptr %1, i64 8
  %22 = add nsw i64 %7, -1
  %23 = tail call ptr %17(ptr noundef %20, ptr noundef %21, i64 noundef %22, ptr noundef %3) #9
  %24 = load i32, ptr %10, align 4, !tbaa !144
  %25 = add i32 %24, 1
  store i32 %25, ptr %10, align 4, !tbaa !144
  br label %method_enter_call.exit.thread

method_enter_call.exit.thread:                    ; preds = %_Py_EnterRecursiveCallTstate.exit.i, %19, %method_enter_call.exit, %4
  %.0 = phi ptr [ null, %4 ], [ %23, %19 ], [ null, %method_enter_call.exit ], [ null, %_Py_EnterRecursiveCallTstate.exit.i ]
  ret ptr %.0
}